; Function Attrs: nofree nounwind sspstrong memory(argmem: readwrite) uwtable
define hidden void @FLAC__fixed_restore_signal(ptr noundef readonly captures(none) %0, i32 noundef %1, i32 noundef %2, ptr noundef %3) local_unnamed_addr #2 {
  switch i32 %2, label %.loopexit [
    i32 0, label %9
    i32 1, label %.preheader
    i32 2, label %.preheader57
    i32 3, label %.preheader59
    i32 4, label %.preheader61
  ]

.preheader61:                                     ; preds = %4
  %5 = icmp sgt i32 %1, 0
  br i1 %5, label %.lr.ph.preheader, label %.loopexit

.lr.ph.preheader:                                 ; preds = %.preheader61
  %wide.trip.count = zext nneg i32 %1 to i64
  %scevgep101 = getelementptr i8, ptr %3, i64 -4
  %load_initial102 = load i32, ptr %scevgep101, align 4
  br label %.lr.ph

.preheader59:                                     ; preds = %4
  %6 = icmp sgt i32 %1, 0
  br i1 %6, label %.lr.ph65.preheader, label %.loopexit

.lr.ph65.preheader:                               ; preds = %.preheader59
  %wide.trip.count77 = zext nneg i32 %1 to i64
  %scevgep98 = getelementptr i8, ptr %3, i64 -4
  %load_initial99 = load i32, ptr %scevgep98, align 4
  br label %.lr.ph65

.preheader57:                                     ; preds = %4
  %7 = icmp sgt i32 %1, 0
  br i1 %7, label %.lr.ph67.preheader, label %.loopexit

.lr.ph67.preheader:                               ; preds = %.preheader57
  %wide.trip.count82 = zext nneg i32 %1 to i64
  %scevgep95 = getelementptr i8, ptr %3, i64 -4
  %load_initial96 = load i32, ptr %scevgep95, align 4
  br label %.lr.ph67

.preheader:                                       ; preds = %4
  %8 = icmp sgt i32 %1, 0
  br i1 %8, label %.lr.ph69.preheader, label %.loopexit

.lr.ph69.preheader:                               ; preds = %.preheader
  %wide.trip.count87 = zext nneg i32 %1 to i64
  %scevgep = getelementptr i8, ptr %3, i64 -4
  %load_initial = load i32, ptr %scevgep, align 4
  br label %.lr.ph69

9:                                                ; preds = %4
  %10 = zext i32 %1 to i64
  %11 = shl nuw nsw i64 %10, 2
  tail call void @llvm.memcpy.p0.p0.i64(ptr noundef nonnull align 1 %3, ptr noundef nonnull align 1 %0, i64 noundef range(i64 0, 17179869181) %11, i1 noundef false) #6
  br label %.loopexit

.lr.ph69:                                         ; preds = %.lr.ph69.preheader, %.lr.ph69
  %store_forwarded = phi i32 [ %load_initial, %.lr.ph69.preheader ], [ %15, %.lr.ph69 ]
  %indvars.iv84 = phi i64 [ 0, %.lr.ph69.preheader ], [ %indvars.iv.next85, %.lr.ph69 ]
  %12 = getelementptr inbounds nuw i32, ptr %0, i64 %indvars.iv84
  %13 = load i32, ptr %12, align 4, !tbaa !3
  %14 = getelementptr i32, ptr %3, i64 %indvars.iv84
  %15 = add nsw i32 %store_forwarded, %13
  store i32 %15, ptr %14, align 4, !tbaa !3
  %indvars.iv.next85 = add nuw nsw i64 %indvars.iv84, 1
  %exitcond88.not = icmp eq i64 %indvars.iv.next85, %wide.trip.count87
  br i1 %exitcond88.not, label %.loopexit, label %.lr.ph69, !llvm.loop !29

.lr.ph67:                                         ; preds = %.lr.ph67.preheader, %.lr.ph67
  %store_forwarded97 = phi i32 [ %load_initial96, %.lr.ph67.preheader ], [ %23, %.lr.ph67 ]
  %indvars.iv79 = phi i64 [ 0, %.lr.ph67.preheader ], [ %indvars.iv.next80, %.lr.ph67 ]
  %16 = getelementptr inbounds nuw i32, ptr %0, i64 %indvars.iv79
  %17 = load i32, ptr %16, align 4, !tbaa !3
  %18 = getelementptr i32, ptr %3, i64 %indvars.iv79
  %19 = shl nsw i32 %store_forwarded97, 1
  %20 = add nsw i32 %19, %17
  %21 = getelementptr i8, ptr %18, i64 -8
  %22 = load i32, ptr %21, align 4, !tbaa !3
  %23 = sub i32 %20, %22
  store i32 %23, ptr %18, align 4, !tbaa !3
  %indvars.iv.next80 = add nuw nsw i64 %indvars.iv79, 1
  %exitcond83.not = icmp eq i64 %indvars.iv.next80, %wide.trip.count82
  br i1 %exitcond83.not, label %.loopexit, label %.lr.ph67, !llvm.loop !30

.lr.ph65:                                         ; preds = %.lr.ph65.preheader, %.lr.ph65
  %store_forwarded100 = phi i32 [ %load_initial99, %.lr.ph65.preheader ], [ %32, %.lr.ph65 ]
  %indvars.iv74 = phi i64 [ 0, %.lr.ph65.preheader ], [ %indvars.iv.next75, %.lr.ph65 ]
  %24 = getelementptr inbounds nuw i32, ptr %0, i64 %indvars.iv74
  %25 = load i32, ptr %24, align 4, !tbaa !3
  %26 = getelementptr i32, ptr %3, i64 %indvars.iv74
  %27 = getelementptr i8, ptr %26, i64 -8
  %28 = load i32, ptr %27, align 4, !tbaa !3
  %29 = getelementptr i8, ptr %26, i64 -12
  %30 = load i32, ptr %29, align 4, !tbaa !3
  %reass.add54 = sub i32 %store_forwarded100, %28
  %reass.mul55 = mul i32 %reass.add54, 3
  %31 = add i32 %30, %25
  %32 = add i32 %31, %reass.mul55
  store i32 %32, ptr %26, align 4, !tbaa !3
  %indvars.iv.next75 = add nuw nsw i64 %indvars.iv74, 1
  %exitcond78.not = icmp eq i64 %indvars.iv.next75, %wide.trip.count77
  br i1 %exitcond78.not, label %.loopexit, label %.lr.ph65, !llvm.loop !31

.lr.ph:                                           ; preds = %.lr.ph.preheader, %.lr.ph
  %store_forwarded103 = phi i32 [ %load_initial102, %.lr.ph.preheader ], [ %44, %.lr.ph ]
  %indvars.iv = phi i64 [ 0, %.lr.ph.preheader ], [ %indvars.iv.next, %.lr.ph ]
  %33 = getelementptr inbounds nuw i32, ptr %0, i64 %indvars.iv
  %34 = load i32, ptr %33, align 4, !tbaa !3
  %35 = getelementptr i32, ptr %3, i64 %indvars.iv
  %36 = getelementptr i8, ptr %35, i64 -8
  %37 = load i32, ptr %36, align 4, !tbaa !3
  %.neg = mul i32 %37, -6
  %38 = getelementptr i8, ptr %35, i64 -12
  %39 = load i32, ptr %38, align 4, !tbaa !3
  %40 = getelementptr i8, ptr %35, i64 -16
  %41 = load i32, ptr %40, align 4, !tbaa !3
  %reass.add = add i32 %39, %store_forwarded103
  %reass.mul = shl i32 %reass.add, 2
  %42 = add i32 %.neg, %34
  %43 = sub i32 %42, %41
  %44 = add i32 %43, %reass.mul
  store i32 %44, ptr %35, align 4, !tbaa !3
  %indvars.iv.next = add nuw nsw i64 %indvars.iv, 1
  %exitcond.not = icmp eq i64 %indvars.iv.next, %wide.trip.count
  br i1 %exitcond.not, label %.loopexit, label %.lr.ph, !llvm.loop !32

.loopexit:                                        ; preds = %.lr.ph, %.lr.ph65, %.lr.ph67, %.lr.ph69, %.preheader61, %.preheader59, %.preheader57, %.preheader, %4, %9
  ret void
}